(dp0
S'docSpace'
p1
(iIndexer.index
DocSpace
p2
(dp3
S'vector_dict'
p4
(dp5
I0
ccollections
Counter
p6
((dp7
Vown
p8
I2
sVsweet
p9
I1
sVAnd
p10
I2
sVlies
p11
I1
sVbright
p12
I1
sVmakst
p13
I1
sVart
p14
I1
sVcontent
p15
I1
sVHis
p16
I1
sVlights
p17
I1
sVrose
p18
I1
sVdue
p19
I1
sVBut
p20
I2
sVshould
p21
I1
sVto
p22
I3
sVonly
p23
I1
sVbeautys
p24
I1
sVtoo
p25
I1
sVmemory
p26
I1
sVfuel
p27
I1
sVwaste
p28
I1
sVmight
p29
I2
sVfairest
p30
I1
sVPity
p31
I1
sVdesire
p32
I1
sVeyes
p33
I1
sVhis
p34
I1
sVthereby
p35
I1
sVthat
p36
I1
sVThou
p37
I1
sVthee
p38
I1
sVheir
p39
I1
sVbear
p40
I1
sVelse
p41
I1
sVworld
p42
I1
sVnow
p43
I1
sVwith
p44
I1
sVeat
p45
I1
sVbud
p46
I1
sVabundance
p47
I1
sVworlds
p48
I2
sVthis
p49
I1
sVdie
p50
I1
sVWithin
p51
I1
sVniggarding
p52
I1
sVherald
p53
I1
sVriper
p54
I1
sVcruel
p55
I1
sVflame
p56
I1
sVwhere
p57
I1
sVand
p58
I1
sVdecease
p59
I1
sVFrom
p60
I1
sVgaudy
p61
I1
sVspring
p62
I1
sVfamine
p63
I1
sVTo
p64
I1
sVas
p65
I1
sVin
p66
I1
sVtender
p67
I2
sVchurl
p68
I1
sVcreatures
p69
I1
sVThat
p70
I1
sVself
p71
I2
sVcontracted
p72
I1
sVornament
p73
I1
sVFeedst
p74
I1
sVincrease
p75
I1
sVfoe
p76
I1
sVbe
p77
I1
sVwe
p78
I1
sVselfsubstantial
p79
I1
sVThy
p80
I1
sVnever
p81
I1
sVMaking
p82
I1
sVby
p83
I2
sVgrave
p84
I1
sVa
p85
I1
sVthy
p86
I4
sVthou
p87
I1
sVthine
p88
I2
sVglutton
p89
I1
sVtime
p90
I1
sVfresh
p91
I1
sVthe
p92
I6
sVor
p93
I1
sVburiest
p94
I1
stp95
Rp96
ssbsS'index'
p97
(iIndexer.index
Index
p98
(dp99
S'dictionary'
p100
(dp101
g12
(lp102
(iIndexer.index
Posting
p103
(dp104
S'term'
p105
g12
sS'doc_id'
p106
I0
sS'tfreq'
p107
I1
sbasg75
(lp108
(iIndexer.index
Posting
p109
(dp110
g105
g75
sg106
I0
sg107
I1
sbasg16
(lp111
(iIndexer.index
Posting
p112
(dp113
g105
g16
sg106
I0
sg107
I1
sbasg17
(lp114
(iIndexer.index
Posting
p115
(dp116
g105
g17
sg106
I0
sg107
I1
sbasg18
(lp117
(iIndexer.index
Posting
p118
(dp119
g105
g18
sg106
I0
sg107
I1
sbasg21
(lp120
(iIndexer.index
Posting
p121
(dp122
g105
g21
sg106
I0
sg107
I1
sbasg22
(lp123
(iIndexer.index
Posting
p124
(dp125
g105
g22
sg106
I0
sg107
I3
sbasg23
(lp126
(iIndexer.index
Posting
p127
(dp128
g105
g23
sg106
I0
sg107
I1
sbasg27
(lp129
(iIndexer.index
Posting
p130
(dp131
g105
g27
sg106
I0
sg107
I1
sbasg29
(lp132
(iIndexer.index
Posting
p133
(dp134
g105
g29
sg106
I0
sg107
I2
sbasg47
(lp135
(iIndexer.index
Posting
p136
(dp137
g105
g47
sg106
I0
sg107
I1
sbasg34
(lp138
(iIndexer.index
Posting
p139
(dp140
g105
g34
sg106
I0
sg107
I1
sbasg35
(lp141
(iIndexer.index
Posting
p142
(dp143
g105
g35
sg106
I0
sg107
I1
sbasg37
(lp144
(iIndexer.index
Posting
p145
(dp146
g105
g37
sg106
I0
sg107
I1
sbasg38
(lp147
(iIndexer.index
Posting
p148
(dp149
g105
g38
sg106
I0
sg107
I1
sbasg40
(lp150
(iIndexer.index
Posting
p151
(dp152
g105
g40
sg106
I0
sg107
I1
sbasg42
(lp153
(iIndexer.index
Posting
p154
(dp155
g105
g42
sg106
I0
sg107
I1
sbasg43
(lp156
(iIndexer.index
Posting
p157
(dp158
g105
g43
sg106
I0
sg107
I1
sbasg32
(lp159
(iIndexer.index
Posting
p160
(dp161
g105
g32
sg106
I0
sg107
I1
sbasg48
(lp162
(iIndexer.index
Posting
p163
(dp164
g105
g48
sg106
I0
sg107
I2
sbasg50
(lp165
(iIndexer.index
Posting
p166
(dp167
g105
g50
sg106
I0
sg107
I1
sbasg51
(lp168
(iIndexer.index
Posting
p169
(dp170
g105
g51
sg106
I0
sg107
I1
sbasg53
(lp171
(iIndexer.index
Posting
p172
(dp173
g105
g53
sg106
I0
sg107
I1
sbasg57
(lp174
(iIndexer.index
Posting
p175
(dp176
g105
g57
sg106
I0
sg107
I1
sbasg59
(lp177
(iIndexer.index
Posting
p178
(dp179
g105
g59
sg106
I0
sg107
I1
sbasg60
(lp180
(iIndexer.index
Posting
p181
(dp182
g105
g60
sg106
I0
sg107
I1
sbasg62
(lp183
(iIndexer.index
Posting
p184
(dp185
g105
g62
sg106
I0
sg107
I1
sbasg63
(lp186
(iIndexer.index
Posting
p187
(dp188
g105
g63
sg106
I0
sg107
I1
sbasg67
(lp189
(iIndexer.index
Posting
p190
(dp191
g105
g67
sg106
I0
sg107
I2
sbasg69
(lp192
(iIndexer.index
Posting
p193
(dp194
g105
g69
sg106
I0
sg107
I1
sbasg70
(lp195
(iIndexer.index
Posting
p196
(dp197
g105
g70
sg106
I0
sg107
I1
sbasg72
(lp198
(iIndexer.index
Posting
p199
(dp200
g105
g72
sg106
I0
sg107
I1
sbasg73
(lp201
(iIndexer.index
Posting
p202
(dp203
g105
g73
sg106
I0
sg107
I1
sbasg15
(lp204
(iIndexer.index
Posting
p205
(dp206
g105
g15
sg106
I0
sg107
I1
sbasg76
(lp207
(iIndexer.index
Posting
p208
(dp209
g105
g76
sg106
I0
sg107
I1
sbasg77
(lp210
(iIndexer.index
Posting
p211
(dp212
g105
g77
sg106
I0
sg107
I1
sbasg78
(lp213
(iIndexer.index
Posting
p214
(dp215
g105
g78
sg106
I0
sg107
I1
sbasg79
(lp216
(iIndexer.index
Posting
p217
(dp218
g105
g79
sg106
I0
sg107
I1
sbasg81
(lp219
(iIndexer.index
Posting
p220
(dp221
g105
g81
sg106
I0
sg107
I1
sbasg83
(lp222
(iIndexer.index
Posting
p223
(dp224
g105
g83
sg106
I0
sg107
I2
sbasg87
(lp225
(iIndexer.index
Posting
p226
(dp227
g105
g87
sg106
I0
sg107
I1
sbasg88
(lp228
(iIndexer.index
Posting
p229
(dp230
g105
g88
sg106
I0
sg107
I2
sbasg93
(lp231
(iIndexer.index
Posting
p232
(dp233
g105
g93
sg106
I0
sg107
I1
sbasg8
(lp234
(iIndexer.index
Posting
p235
(dp236
g105
g8
sg106
I0
sg107
I2
sbasg9
(lp237
(iIndexer.index
Posting
p238
(dp239
g105
g9
sg106
I0
sg107
I1
sbasg11
(lp240
(iIndexer.index
Posting
p241
(dp242
g105
g11
sg106
I0
sg107
I1
sbasg14
(lp243
(iIndexer.index
Posting
p244
(dp245
g105
g14
sg106
I0
sg107
I1
sbasg19
(lp246
(iIndexer.index
Posting
p247
(dp248
g105
g19
sg106
I0
sg107
I1
sbasg20
(lp249
(iIndexer.index
Posting
p250
(dp251
g105
g20
sg106
I0
sg107
I2
sbasg24
(lp252
(iIndexer.index
Posting
p253
(dp254
g105
g24
sg106
I0
sg107
I1
sbasg25
(lp255
(iIndexer.index
Posting
p256
(dp257
g105
g25
sg106
I0
sg107
I1
sbasg26
(lp258
(iIndexer.index
Posting
p259
(dp260
g105
g26
sg106
I0
sg107
I1
sbasg28
(lp261
(iIndexer.index
Posting
p262
(dp263
g105
g28
sg106
I0
sg107
I1
sbasg30
(lp264
(iIndexer.index
Posting
p265
(dp266
g105
g30
sg106
I0
sg107
I1
sbasg31
(lp267
(iIndexer.index
Posting
p268
(dp269
g105
g31
sg106
I0
sg107
I1
sbasg61
(lp270
(iIndexer.index
Posting
p271
(dp272
g105
g61
sg106
I0
sg107
I1
sbasg33
(lp273
(iIndexer.index
Posting
p274
(dp275
g105
g33
sg106
I0
sg107
I1
sbasg36
(lp276
(iIndexer.index
Posting
p277
(dp278
g105
g36
sg106
I0
sg107
I1
sbasg39
(lp279
(iIndexer.index
Posting
p280
(dp281
g105
g39
sg106
I0
sg107
I1
sbasg41
(lp282
(iIndexer.index
Posting
p283
(dp284
g105
g41
sg106
I0
sg107
I1
sbasg13
(lp285
(iIndexer.index
Posting
p286
(dp287
g105
g13
sg106
I0
sg107
I1
sbasg44
(lp288
(iIndexer.index
Posting
p289
(dp290
g105
g44
sg106
I0
sg107
I1
sbasg45
(lp291
(iIndexer.index
Posting
p292
(dp293
g105
g45
sg106
I0
sg107
I1
sbasg46
(lp294
(iIndexer.index
Posting
p295
(dp296
g105
g46
sg106
I0
sg107
I1
sbasg10
(lp297
(iIndexer.index
Posting
p298
(dp299
g105
g10
sg106
I0
sg107
I2
sbasg49
(lp300
(iIndexer.index
Posting
p301
(dp302
g105
g49
sg106
I0
sg107
I1
sbasg52
(lp303
(iIndexer.index
Posting
p304
(dp305
g105
g52
sg106
I0
sg107
I1
sbasg54
(lp306
(iIndexer.index
Posting
p307
(dp308
g105
g54
sg106
I0
sg107
I1
sbasg55
(lp309
(iIndexer.index
Posting
p310
(dp311
g105
g55
sg106
I0
sg107
I1
sbasg56
(lp312
(iIndexer.index
Posting
p313
(dp314
g105
g56
sg106
I0
sg107
I1
sbasg58
(lp315
(iIndexer.index
Posting
p316
(dp317
g105
g58
sg106
I0
sg107
I1
sbasg64
(lp318
(iIndexer.index
Posting
p319
(dp320
g105
g64
sg106
I0
sg107
I1
sbasg65
(lp321
(iIndexer.index
Posting
p322
(dp323
g105
g65
sg106
I0
sg107
I1
sbasg66
(lp324
(iIndexer.index
Posting
p325
(dp326
g105
g66
sg106
I0
sg107
I1
sbasg68
(lp327
(iIndexer.index
Posting
p328
(dp329
g105
g68
sg106
I0
sg107
I1
sbasg71
(lp330
(iIndexer.index
Posting
p331
(dp332
g105
g71
sg106
I0
sg107
I2
sbasg74
(lp333
(iIndexer.index
Posting
p334
(dp335
g105
g74
sg106
I0
sg107
I1
sbasg80
(lp336
(iIndexer.index
Posting
p337
(dp338
g105
g80
sg106
I0
sg107
I1
sbasg82
(lp339
(iIndexer.index
Posting
p340
(dp341
g105
g82
sg106
I0
sg107
I1
sbasg84
(lp342
(iIndexer.index
Posting
p343
(dp344
g105
g84
sg106
I0
sg107
I1
sbasg85
(lp345
(iIndexer.index
Posting
p346
(dp347
g105
g85
sg106
I0
sg107
I1
sbasg86
(lp348
(iIndexer.index
Posting
p349
(dp350
g105
g86
sg106
I0
sg107
I4
sbasg89
(lp351
(iIndexer.index
Posting
p352
(dp353
g105
g89
sg106
I0
sg107
I1
sbasg90
(lp354
(iIndexer.index
Posting
p355
(dp356
g105
g90
sg106
I0
sg107
I1
sbasg91
(lp357
(iIndexer.index
Posting
p358
(dp359
g105
g91
sg106
I0
sg107
I1
sbasg92
(lp360
(iIndexer.index
Posting
p361
(dp362
g105
g92
sg106
I0
sg107
I6
sbasg94
(lp363
(iIndexer.index
Posting
p364
(dp365
g105
g94
sg106
I0
sg107
I1
sbassbsS'document_map'
p366
(dp367
I0
(iutil.Document
Document
p368
(dp369
S'term_list'
p370
(lp371
g60
ag30
ag69
ag78
ag32
ag75
ag70
ag35
ag24
ag18
ag29
ag81
ag50
ag20
ag65
ag92
ag54
ag21
ag83
ag90
ag59
ag16
ag67
ag39
aVmight
p372
ag40
ag34
ag26
aVBut
p373
ag87
ag72
ag22
ag88
ag8
ag12
ag33
ag74
ag86
ag17
ag56
ag44
ag79
ag27
ag82
ag85
ag63
ag57
ag47
ag11
ag80
ag71
aVthy
p374
ag76
aVto
p375
aVthy
p376
ag9
aVself
p377
ag25
ag55
ag37
ag36
ag14
ag43
aVthe
p378
ag48
ag91
ag73
ag10
ag23
ag53
aVto
p379
aVthe
p380
ag61
ag62
ag51
aVthine
p381
aVown
p382
ag46
ag94
aVthy
p383
ag15
aVAnd
p384
aVtender
p385
ag68
ag13
ag28
ag66
ag52
ag31
aVthe
p386
ag42
ag93
ag41
ag49
ag89
ag77
ag64
ag45
aVthe
p387
aVworlds
p388
ag19
aVby
p389
aVthe
p390
ag84
ag58
ag38
asS'id'
p391
I0
sS'name'
p392
S'001.html'
p393
sbss.